target datalayout = "e-m:e-p270:32:32-p271:32:32-p272:64:64-i64:64-i128:128-f80:128-n8:16:32:64-S128"
target triple = "x86_64-unknown-linux-gnu"

%"class.snappy::ByteArraySource" = type { %"class.snappy::Source", ptr, i64 }
%"class.snappy::Source" = type { ptr }
%"class.__gnu_cxx::__normal_iterator" = type { ptr }
%"class.snappy::UncheckedByteArraySink" = type { %"class.snappy::Sink", ptr }
%"class.snappy::Sink" = type { ptr }

@_ZTVN6snappy15ByteArraySourceE = external unnamed_addr constant { [7 x ptr] }, align 8
@_ZTVN6snappy6SourceE = external unnamed_addr constant { [7 x ptr] }, align 8
@_ZTVN6snappy22UncheckedByteArraySinkE = external unnamed_addr constant { [8 x ptr] }, align 8
@_ZTVN6snappy4SinkE = external unnamed_addr constant { [8 x ptr] }, align 8

; Function Attrs: mustprogress nounwind uwtable
define linkonce_odr dso_local void @_ZN6snappy4SinkC2Ev(ptr noundef nonnull align 8 dereferenceable(8) %this) unnamed_addr #0 comdat align 2 {
entry:
  %this.addr = alloca ptr, align 8
  store ptr %this, ptr %this.addr, align 8
  %this1 = load ptr, ptr %this.addr, align 8
  store ptr getelementptr inbounds ({ [8 x ptr] }, ptr @_ZTVN6snappy4SinkE, i32 0, i32 0, i32 2), ptr %this1, align 8
  ret void
}

; Function Attrs: mustprogress nounwind uwtable
define linkonce_odr dso_local void @_ZN6snappy6SourceC2Ev(ptr noundef nonnull align 8 dereferenceable(8) %this) unnamed_addr #0 comdat align 2 {
entry:
  %this.addr = alloca ptr, align 8
  store ptr %this, ptr %this.addr, align 8
  %this1 = load ptr, ptr %this.addr, align 8
  store ptr getelementptr inbounds ({ [7 x ptr] }, ptr @_ZTVN6snappy6SourceE, i32 0, i32 0, i32 2), ptr %this1, align 8
  ret void
}

; Function Attrs: mustprogress nounwind uwtable
define linkonce_odr dso_local noundef ptr @_ZNK6snappy22UncheckedByteArraySink18CurrentDestinationEv(ptr noundef nonnull align 8 dereferenceable(16) %this) #0 comdat align 2 {
entry:
  %this.addr = alloca ptr, align 8
  store ptr %this, ptr %this.addr, align 8
  %this1 = load ptr, ptr %this.addr, align 8
  %dest_ = getelementptr inbounds %"class.snappy::UncheckedByteArraySink", ptr %this1, i32 0, i32 1
  %0 = load ptr, ptr %dest_, align 8
  ret ptr %0
}

; Function Attrs: mustprogress nounwind uwtable
define linkonce_odr dso_local void @_ZN6snappy22UncheckedByteArraySinkC2EPc(ptr noundef nonnull align 8 dereferenceable(16) %this, ptr noundef %dest) unnamed_addr #0 comdat align 2 {
entry:
  %this.addr = alloca ptr, align 8
  %dest.addr = alloca ptr, align 8
  store ptr %this, ptr %this.addr, align 8
  store ptr %dest, ptr %dest.addr, align 8
  %this1 = load ptr, ptr %this.addr, align 8
  call void @_ZN6snappy4SinkC2Ev(ptr noundef nonnull align 8 dereferenceable(8) %this1)
  store ptr getelementptr inbounds ({ [8 x ptr] }, ptr @_ZTVN6snappy22UncheckedByteArraySinkE, i32 0, i32 0, i32 2), ptr %this1, align 8
  %dest_ = getelementptr inbounds %"class.snappy::UncheckedByteArraySink", ptr %this1, i32 0, i32 1
  %0 = load ptr, ptr %dest.addr, align 8
  store ptr %0, ptr %dest_, align 8
  ret void
}

; Function Attrs: mustprogress nounwind uwtable
define linkonce_odr dso_local void @_ZN6snappy15ByteArraySourceC2EPKcm(ptr noundef nonnull align 8 dereferenceable(24) %this, ptr noundef %p, i64 noundef %n) unnamed_addr #0 comdat align 2 {
entry:
  %this.addr = alloca ptr, align 8
  %p.addr = alloca ptr, align 8
  %n.addr = alloca i64, align 8
  store ptr %this, ptr %this.addr, align 8
  store ptr %p, ptr %p.addr, align 8
  store i64 %n, ptr %n.addr, align 8
  %this1 = load ptr, ptr %this.addr, align 8
  call void @_ZN6snappy6SourceC2Ev(ptr noundef nonnull align 8 dereferenceable(8) %this1)
  store ptr getelementptr inbounds ({ [7 x ptr] }, ptr @_ZTVN6snappy15ByteArraySourceE, i32 0, i32 0, i32 2), ptr %this1, align 8
  %ptr_ = getelementptr inbounds %"class.snappy::ByteArraySource", ptr %this1, i32 0, i32 1
  %0 = load ptr, ptr %p.addr, align 8
  store ptr %0, ptr %ptr_, align 8
  %left_ = getelementptr inbounds %"class.snappy::ByteArraySource", ptr %this1, i32 0, i32 2
  %1 = load i64, ptr %n.addr, align 8
  store i64 %1, ptr %left_, align 8
  ret void
}

; Function Attrs: mustprogress nounwind uwtable
define linkonce_odr dso_local noundef nonnull align 1 dereferenceable(1) ptr @_ZNK9__gnu_cxx17__normal_iteratorIPcNSt7__cxx1112basic_stringIcSt11char_traitsIcESaIcEEEEdeEv(ptr noundef nonnull align 8 dereferenceable(8) %this) #0 comdat align 2 {
entry:
  %this.addr = alloca ptr, align 8
  store ptr %this, ptr %this.addr, align 8
  %this1 = load ptr, ptr %this.addr, align 8
  %_M_current = getelementptr inbounds %"class.__gnu_cxx::__normal_iterator", ptr %this1, i32 0, i32 0
  %0 = load ptr, ptr %_M_current, align 8
  ret ptr %0
}

; Function Attrs: mustprogress nounwind uwtable
define dso_local void @_ZN6snappy11RawCompressEPKcmPcPm(ptr noundef %input, i64 noundef %input_length, ptr noundef %compressed, ptr noundef %compressed_length) #0 {
entry:
  %input.addr = alloca ptr, align 8
  %input_length.addr = alloca i64, align 8
  %compressed.addr = alloca ptr, align 8
  %compressed_length.addr = alloca ptr, align 8
  %reader = alloca %"class.snappy::ByteArraySource", align 8
  %writer = alloca %"class.snappy::UncheckedByteArraySink", align 8
  store ptr %input, ptr %input.addr, align 8
  store i64 %input_length, ptr %input_length.addr, align 8
  store ptr %compressed, ptr %compressed.addr, align 8
  store ptr %compressed_length, ptr %compressed_length.addr, align 8
  %0 = load ptr, ptr %input.addr, align 8
  %1 = load i64, ptr %input_length.addr, align 8
  call void @_ZN6snappy15ByteArraySourceC2EPKcm(ptr noundef nonnull align 8 dereferenceable(24) %reader, ptr noundef %0, i64 noundef %1)
  %2 = load ptr, ptr %compressed.addr, align 8
  call void @_ZN6snappy22UncheckedByteArraySinkC2EPc(ptr noundef nonnull align 8 dereferenceable(16) %writer, ptr noundef %2)
  %call = call noundef i64 @_ZN6snappy8CompressEPNS_6SourceEPNS_4SinkE(ptr noundef %reader, ptr noundef %writer)
  %call1 = call noundef ptr @_ZNK6snappy22UncheckedByteArraySink18CurrentDestinationEv(ptr noundef nonnull align 8 dereferenceable(16) %writer)
  %3 = load ptr, ptr %compressed.addr, align 8
  %sub.ptr.lhs.cast = ptrtoint ptr %call1 to i64
  %sub.ptr.rhs.cast = ptrtoint ptr %3 to i64
  %sub.ptr.sub = sub i64 %sub.ptr.lhs.cast, %sub.ptr.rhs.cast
  %4 = load ptr, ptr %compressed_length.addr, align 8
  store i64 %sub.ptr.sub, ptr %4, align 8
  call void @_ZN6snappy22UncheckedByteArraySinkD1Ev(ptr noundef nonnull align 8 dereferenceable(16) %writer) #11
  call void @_ZN6snappy15ByteArraySourceD1Ev(ptr noundef nonnull align 8 dereferenceable(24) %reader) #11
  ret void
}

; Function Attrs: mustprogress nounwind uwtable
define linkonce_odr dso_local noundef ptr @_ZN6snappy15string_as_arrayEPNSt7__cxx1112basic_stringIcSt11char_traitsIcESaIcEEE(ptr noundef %str) #0 comdat {
entry:
  %str.addr = alloca ptr, align 8
  %ref.tmp = alloca %"class.__gnu_cxx::__normal_iterator", align 8
  store ptr %str, ptr %str.addr, align 8
  %0 = load ptr, ptr %str.addr, align 8
  %call = call noundef zeroext i1 @_ZNKSt7__cxx1112basic_stringIcSt11char_traitsIcESaIcEE5emptyEv(ptr noundef nonnull align 8 dereferenceable(32) %0) #11
  br i1 %call, label %cond.true, label %cond.false

cond.true:                                        ; preds = %entry
  br label %cond.end

cond.false:                                       ; preds = %entry
  %1 = load ptr, ptr %str.addr, align 8
  %call1 = call ptr @_ZNSt7__cxx1112basic_stringIcSt11char_traitsIcESaIcEE5beginEv(ptr noundef nonnull align 8 dereferenceable(32) %1) #11
  %coerce.dive = getelementptr inbounds %"class.__gnu_cxx::__normal_iterator", ptr %ref.tmp, i32 0, i32 0
  store ptr %call1, ptr %coerce.dive, align 8
  %call2 = call noundef nonnull align 1 dereferenceable(1) ptr @_ZNK9__gnu_cxx17__normal_iteratorIPcNSt7__cxx1112basic_stringIcSt11char_traitsIcESaIcEEEEdeEv(ptr noundef nonnull align 8 dereferenceable(8) %ref.tmp) #11
  br label %cond.end

cond.end:                                         ; preds = %cond.false, %cond.true
  %cond = phi ptr [ null, %cond.true ], [ %call2, %cond.false ]
  ret ptr %cond
}

; Function Attrs: mustprogress nounwind uwtable
define linkonce_odr dso_local void @_ZN6snappy28STLStringResizeUninitializedEPNSt7__cxx1112basic_stringIcSt11char_traitsIcESaIcEEEm(ptr noundef %s, i64 noundef %new_size) #0 comdat {
entry:
  %s.addr = alloca ptr, align 8
  %new_size.addr = alloca i64, align 8
  store ptr %s, ptr %s.addr, align 8
  store i64 %new_size, ptr %new_size.addr, align 8
  %0 = load ptr, ptr %s.addr, align 8
  %1 = load i64, ptr %new_size.addr, align 8
  call void @_ZNSt7__cxx1112basic_stringIcSt11char_traitsIcESaIcEE6resizeEm(ptr noundef nonnull align 8 dereferenceable(32) %0, i64 noundef %1)
  ret void
}

; Function Attrs: mustprogress nounwind uwtable
define dso_local noundef i64 @_ZN6snappy19MaxCompressedLengthEm(i64 noundef %source_bytes) #0 {
entry:
  %source_bytes.addr = alloca i64, align 8
  store i64 %source_bytes, ptr %source_bytes.addr, align 8
  %0 = load i64, ptr %source_bytes.addr, align 8
  %add = add i64 32, %0
  %1 = load i64, ptr %source_bytes.addr, align 8
  %div = udiv i64 %1, 6
  %add1 = add i64 %add, %div
  ret i64 %add1
}

; Function Attrs: mustprogress nounwind uwtable
define dso_local noundef i64 @_ZN6snappy8CompressEPKcmPNSt7__cxx1112basic_stringIcSt11char_traitsIcESaIcEEE(ptr noundef %input, i64 noundef %input_length, ptr noundef %compressed) #0 {
entry:
  %input.addr = alloca ptr, align 8
  %input_length.addr = alloca i64, align 8
  %compressed.addr = alloca ptr, align 8
  %compressed_length = alloca i64, align 8
  store ptr %input, ptr %input.addr, align 8
  store i64 %input_length, ptr %input_length.addr, align 8
  store ptr %compressed, ptr %compressed.addr, align 8
  %0 = load ptr, ptr %compressed.addr, align 8
  %1 = load i64, ptr %input_length.addr, align 8
  %call = call noundef i64 @_ZN6snappy19MaxCompressedLengthEm(i64 noundef %1)
  call void @_ZN6snappy28STLStringResizeUninitializedEPNSt7__cxx1112basic_stringIcSt11char_traitsIcESaIcEEEm(ptr noundef %0, i64 noundef %call)
  %2 = load ptr, ptr %input.addr, align 8
  %3 = load i64, ptr %input_length.addr, align 8
  %4 = load ptr, ptr %compressed.addr, align 8
  %call1 = call noundef ptr @_ZN6snappy15string_as_arrayEPNSt7__cxx1112basic_stringIcSt11char_traitsIcESaIcEEE(ptr noundef %4)
  call void @_ZN6snappy11RawCompressEPKcmPcPm(ptr noundef %2, i64 noundef %3, ptr noundef %call1, ptr noundef %compressed_length)
  %5 = load ptr, ptr %compressed.addr, align 8
  %6 = load i64, ptr %compressed_length, align 8
  %call2 = call noundef nonnull align 8 dereferenceable(32) ptr @_ZNSt7__cxx1112basic_stringIcSt11char_traitsIcESaIcEE5eraseEmm(ptr noundef nonnull align 8 dereferenceable(32) %5, i64 noundef %6, i64 noundef -1)
  %7 = load i64, ptr %compressed_length, align 8
  ret i64 %7
}