; Function Attrs: mustprogress nounwind uwtable
define dso_local noundef i64 @_ZN6snappy8CompressEPKcmPNSt7__cxx1112basic_stringIcSt11char_traitsIcESaIcEEE(ptr noundef %input, i64 noundef %input_length, ptr noundef nonnull %compressed) local_unnamed_addr #2 {
entry:
  %reader.i = alloca %"class.snappy::ByteArraySource", align 8
  %writer.i = alloca %"class.snappy::UncheckedByteArraySink", align 8
  %add.i = add i64 %input_length, 32
  %div.i = udiv i64 %input_length, 6
  %add1.i = add i64 %add.i, %div.i
  tail call void @_ZNSt7__cxx1112basic_stringIcSt11char_traitsIcESaIcEE6resizeEm(ptr noundef nonnull align 8 dereferenceable(32) %compressed, i64 noundef %add1.i) #19
  %call.i = tail call noundef zeroext i1 @_ZNKSt7__cxx1112basic_stringIcSt11char_traitsIcESaIcEE5emptyEv(ptr noundef nonnull align 8 dereferenceable(32) %compressed) #19
  br i1 %call.i, label %_ZN6snappy15string_as_arrayEPNSt7__cxx1112basic_stringIcSt11char_traitsIcESaIcEEE.exit, label %cond.false.i

cond.false.i:                                     ; preds = %entry
  %call1.i = tail call ptr @_ZNSt7__cxx1112basic_stringIcSt11char_traitsIcESaIcEE5beginEv(ptr noundef nonnull align 8 dereferenceable(32) %compressed) #19
  br label %_ZN6snappy15string_as_arrayEPNSt7__cxx1112basic_stringIcSt11char_traitsIcESaIcEEE.exit

_ZN6snappy15string_as_arrayEPNSt7__cxx1112basic_stringIcSt11char_traitsIcESaIcEEE.exit: ; preds = %entry, %cond.false.i
  %cond.i = phi ptr [ %call1.i, %cond.false.i ], [ null, %entry ]
  call void @llvm.lifetime.start.p0(i64 24, ptr nonnull %reader.i)
  call void @llvm.lifetime.start.p0(i64 16, ptr nonnull %writer.i)
  store ptr getelementptr inbounds ({ [7 x ptr] }, ptr @_ZTVN6snappy15ByteArraySourceE, i64 0, i32 0, i64 2), ptr %reader.i, align 8
  %ptr_.i.i = getelementptr inbounds i8, ptr %reader.i, i64 8
  store ptr %input, ptr %ptr_.i.i, align 8
  %left_.i.i = getelementptr inbounds i8, ptr %reader.i, i64 16
  store i64 %input_length, ptr %left_.i.i, align 8
  store ptr getelementptr inbounds ({ [8 x ptr] }, ptr @_ZTVN6snappy22UncheckedByteArraySinkE, i64 0, i32 0, i64 2), ptr %writer.i, align 8
  %dest_.i.i = getelementptr inbounds i8, ptr %writer.i, i64 8
  store ptr %cond.i, ptr %dest_.i.i, align 8
  %call.i4 = call noundef i64 @_ZN6snappy8CompressEPNS_6SourceEPNS_4SinkE(ptr noundef nonnull %reader.i, ptr noundef nonnull %writer.i)
  %0 = load ptr, ptr %dest_.i.i, align 8
  %sub.ptr.lhs.cast.i = ptrtoint ptr %0 to i64
  %sub.ptr.rhs.cast.i = ptrtoint ptr %cond.i to i64
  %sub.ptr.sub.i = sub i64 %sub.ptr.lhs.cast.i, %sub.ptr.rhs.cast.i
  call void @_ZN6snappy22UncheckedByteArraySinkD1Ev(ptr noundef nonnull align 8 dereferenceable(16) %writer.i) #19
  call void @_ZN6snappy15ByteArraySourceD1Ev(ptr noundef nonnull align 8 dereferenceable(24) %reader.i) #19
  call void @llvm.lifetime.end.p0(i64 24, ptr nonnull %reader.i)
  call void @llvm.lifetime.end.p0(i64 16, ptr nonnull %writer.i)
  %call2 = call noundef nonnull align 8 dereferenceable(32) ptr @_ZNSt7__cxx1112basic_stringIcSt11char_traitsIcESaIcEE5eraseEmm(ptr noundef nonnull align 8 dereferenceable(32) %compressed, i64 noundef %sub.ptr.sub.i, i64 noundef -1) #19
  ret i64 %sub.ptr.sub.i
}